
Memory Configuration

Name             Origin             Length             Attributes
FLASH            0x0000000000000000 0x000000000007d000 xr
RAM              0x0000000020000000 0x000000000001f400 xrw
*default*        0x0000000000000000 0xffffffffffffffff

Linker script and memory map


.text           0x0000000000000000     0x143c
 *(.vector_table)
 .vector_table  0x0000000000000000      0x1c4 output/startup_stm32f446re.o
                0x0000000000000000                __vector_table
                0x00000000000001c4                __vector_end = .
                0x00000000000001c4                __vector_size = (__vector_end - __vector_table)
 *(.text*)
 .text          0x00000000000001c4       0x68 output/startup_stm32f446re.o
                0x00000000000001c4                reset_handler
                0x0000000000000224                EXTI15_10_handler
                0x0000000000000224                DMA1_Stream7_handler
                0x0000000000000224                USART1_handler
                0x0000000000000224                TIM1_UP_TIM10_handler
                0x0000000000000224                OTG_HS_handler
                0x0000000000000224                pend_SV_handler
                0x0000000000000224                EXTI0_handler
                0x0000000000000224                DMA1_Stream1_handler
                0x0000000000000224                TIM8_BRK_TIM12_handler
                0x0000000000000224                TIM6_DAC_handler
                0x0000000000000224                CAN1_RX1_handler
                0x0000000000000224                SDIO_handler
                0x0000000000000224                NMI_handler
                0x0000000000000224                DMA2_Stream3_handler
                0x0000000000000224                FMPI2C1_handler
                0x0000000000000224                TIM8_TRG_COM_TIM14_handler
                0x0000000000000224                OTG_HS_WKUP_handler
                0x0000000000000224                TIM2_handler
                0x0000000000000224                USART2_handler
                0x0000000000000224                usage_fault_handler
                0x0000000000000224                OTG_HS_EP1_IN_handler
                0x0000000000000224                SPI3_handler
                0x0000000000000224                TIM3_handler
                0x0000000000000224                SAI2_handler
                0x0000000000000224                WWDG_handler
                0x0000000000000224                default_handler
                0x0000000000000224                SPI2_handler
                0x0000000000000224                DMA2_Stream6_handler
                0x0000000000000224                SAI1_handler
                0x0000000000000224                UART4_handler
                0x0000000000000224                TIM8_UP_TIM13_handler
                0x0000000000000224                I2C3_ER_handler
                0x0000000000000224                DMA1_Stream3_handler
                0x0000000000000224                PVD_handler
                0x0000000000000224                EXTI9_5_handler
                0x0000000000000224                SPI4_handler
                0x0000000000000224                RTC_WKUP_handler
                0x0000000000000224                SPDIF_RX_handler
                0x0000000000000224                DMA1_Stream5_handler
                0x0000000000000224                FPU_handler
                0x0000000000000224                DMA2_Stream5_handler
                0x0000000000000224                UART5_handler
                0x0000000000000224                HDMI_CEC_handler
                0x0000000000000224                hard_fault_handler
                0x0000000000000224                RCC_handler
                0x0000000000000224                TIM8_CC_handler
                0x0000000000000224                FMPI2C1_error_handler
                0x0000000000000224                EXTI2_handler
                0x0000000000000224                SVC_handler
                0x0000000000000224                DMA2_Stream1_handler
                0x0000000000000224                TIM7_handler
                0x0000000000000224                I2C1_ER_handler
                0x0000000000000224                I2C2_EV_handler
                0x0000000000000224                OTG_FS_WKUP_handler
                0x0000000000000224                DCMI_handler
                0x0000000000000224                debug_monitor_handler
                0x0000000000000224                EXTI3_handler
                0x0000000000000224                DMA2_Stream0_handler
                0x0000000000000224                FLASH_handler
                0x0000000000000224                OTG_HS_EP1_OUT_handler
                0x0000000000000224                OTG_FS_handler
                0x0000000000000224                DMA1_Stream4_handler
                0x0000000000000224                I2C2_ER_handler
                0x0000000000000224                sys_tick_handler
                0x0000000000000224                TAMP_STAMP_handler
                0x0000000000000224                USART6_handler
                0x0000000000000224                TIM4_handler
                0x0000000000000224                DMA1_Stream2_handler
                0x0000000000000224                EXTI4_handler
                0x0000000000000224                CAN1_TX_handler
                0x0000000000000224                mem_manage_handler
                0x0000000000000224                CAN2_RX0_handler
                0x0000000000000224                DMA1_Stream6_handler
                0x0000000000000224                CAN2_TX_handler
                0x0000000000000224                CAN2_SCE_handler
                0x0000000000000224                ADC_handler
                0x0000000000000224                I2C1_EV_handler
                0x0000000000000224                CAN1_RX0_handler
                0x0000000000000224                TMI1_BRK_TIM9_handler
                0x0000000000000224                SPI1_handler
                0x0000000000000224                DMA2_Stream4_handler
                0x0000000000000224                FMC_handler
                0x0000000000000224                DMA2_Stream7_handler
                0x0000000000000224                QuadSPI_handler
                0x0000000000000224                DMA1_Stream0_handler
                0x0000000000000224                DMA2_Stream2_handler
                0x0000000000000224                EXTI1_handler
                0x0000000000000224                TIM1_TRG_COM_TIM11_handler
                0x0000000000000224                TIM5_handler
                0x0000000000000224                CAN1_SCE_handler
                0x0000000000000224                RTC_alarm_handler
                0x0000000000000224                I2C3_EV_handler
                0x0000000000000224                bus_fault_handler
                0x0000000000000224                CAN2_RX1_handler
                0x0000000000000224                TIM1_CC_handler
                0x0000000000000224                USART3_handler
 .text          0x000000000000022c      0xaf8 output/system_stm32f446re.o
                0x0000000000000cc4                system_init
 .text          0x0000000000000d24       0x30 output/main.o
                0x0000000000000d24                main
 .text          0x0000000000000d54       0x5c output/onboard_led.o
                0x0000000000000d54                onboard_led_init
                0x0000000000000d7c                onboard_led_turn_on
                0x0000000000000d8e                onboard_led_turn_off
                0x0000000000000da0                onboard_led_toggle
 .text          0x0000000000000db0      0x688 output/gpio.o
                0x00000000000011a8                GPIO_configure_port_pin
                0x0000000000001224                GPIO_write
                0x0000000000001284                GPIO_write_atomic
                0x00000000000012ec                GPIO_toggle
                0x0000000000001330                GPIO_read
                0x0000000000001384                GPIO_lock
                0x00000000000013ec                GPIO_is_pin_locked
 *(.rodata*)
 .rodata        0x0000000000001438        0x4 output/system_stm32f446re.o
                0x000000000000143c                __etext = .

.glue_7         0x000000000000143c        0x0
 .glue_7        0x000000000000143c        0x0 linker stubs

.glue_7t        0x000000000000143c        0x0
 .glue_7t       0x000000000000143c        0x0 linker stubs

.vfp11_veneer   0x000000000000143c        0x0
 .vfp11_veneer  0x000000000000143c        0x0 linker stubs

.v4_bx          0x000000000000143c        0x0
 .v4_bx         0x000000000000143c        0x0 linker stubs

.iplt           0x000000000000143c        0x0
 .iplt          0x000000000000143c        0x0 output/startup_stm32f446re.o

.rel.dyn        0x000000000000143c        0x0
 .rel.iplt      0x000000000000143c        0x0 output/startup_stm32f446re.o

.data           0x0000000020000000        0x0 load address 0x000000000000143c
                0x0000000020000000                __data_start__ = .
 *(.data*)
 .data          0x0000000020000000        0x0 output/startup_stm32f446re.o
 .data          0x0000000020000000        0x0 output/system_stm32f446re.o
 .data          0x0000000020000000        0x0 output/main.o
 .data          0x0000000020000000        0x0 output/onboard_led.o
 .data          0x0000000020000000        0x0 output/gpio.o
                0x0000000020000000                . = ALIGN (0x4)
                0x0000000020000000                __data_end__ = .

.igot.plt       0x0000000020000000        0x0 load address 0x000000000000143c
 .igot.plt      0x0000000020000000        0x0 output/startup_stm32f446re.o

.bss            0x0000000020000000       0x10 load address 0x000000000000143c
                0x0000000020000000                . = ALIGN (0x4)
                0x0000000020000000                __bss_start__ = .
 *(.bss*)
 .bss           0x0000000020000000        0x0 output/startup_stm32f446re.o
 .bss           0x0000000020000000       0x10 output/system_stm32f446re.o
                0x0000000020000000                sys_clock
                0x0000000020000004                AHB_bus_clock
                0x0000000020000008                APB1_bus_clock
                0x000000002000000c                APB2_bus_clock
 .bss           0x0000000020000010        0x0 output/main.o
 .bss           0x0000000020000010        0x0 output/onboard_led.o
 .bss           0x0000000020000010        0x0 output/gpio.o
 *(COMMON)
                0x0000000020000010                . = ALIGN (0x4)
                0x0000000020000010                __bss_end__ = .

.heap           0x0000000020000010        0x0
                0x0000000020000010                __heap_base = .
 *(.heap*)
                0x0000000020000010                __heap_limit = .

.stack_dummy    0x0000000020000010      0x400 load address 0x0000000000001450
 *(.stack*)
 .stack         0x0000000020000010      0x400 output/startup_stm32f446re.o
                0x000000002001f400                __stack_top = (ORIGIN (RAM) + LENGTH (RAM))
                0x000000002001f000                __stack_limit = (__stack_top - SIZEOF (.stack_dummy))
                [!provide]                        PROVIDE (__stack = __stack_top)
                0x0000000000000001                ASSERT ((__stack_limit >= __heap_limit), region RAM overflowed with stack)
LOAD /home/aermobdev/toolchains/gcc-arm-none-eabi-9-2019-q4-major/arm-none-eabi/lib/thumb/v7e-m+fp/hard/libc.a
LOAD /home/aermobdev/toolchains/gcc-arm-none-eabi-9-2019-q4-major/arm-none-eabi/lib/thumb/v7e-m+fp/hard/libg.a
LOAD /home/aermobdev/toolchains/gcc-arm-none-eabi-9-2019-q4-major/arm-none-eabi/lib/thumb/v7e-m+fp/hard/libm.a
LOAD output/startup_stm32f446re.o
LOAD output/system_stm32f446re.o
LOAD output/main.o
LOAD output/onboard_led.o
LOAD output/gpio.o
OUTPUT(output/onboard_blinky.elf elf32-littlearm)

.debug_info     0x0000000000000000     0x162d
 .debug_info    0x0000000000000000      0x2d2 output/startup_stm32f446re.o
 .debug_info    0x00000000000002d2      0x697 output/system_stm32f446re.o
 .debug_info    0x0000000000000969       0x5c output/main.o
 .debug_info    0x00000000000009c5      0x279 output/onboard_led.o
 .debug_info    0x0000000000000c3e      0x9ef output/gpio.o

.debug_abbrev   0x0000000000000000      0x5da
 .debug_abbrev  0x0000000000000000      0x123 output/startup_stm32f446re.o
 .debug_abbrev  0x0000000000000123      0x1a4 output/system_stm32f446re.o
 .debug_abbrev  0x00000000000002c7       0x59 output/main.o
 .debug_abbrev  0x0000000000000320       0xbe output/onboard_led.o
 .debug_abbrev  0x00000000000003de      0x1fc output/gpio.o

.debug_aranges  0x0000000000000000       0xa0
 .debug_aranges
                0x0000000000000000       0x20 output/startup_stm32f446re.o
 .debug_aranges
                0x0000000000000020       0x20 output/system_stm32f446re.o
 .debug_aranges
                0x0000000000000040       0x20 output/main.o
 .debug_aranges
                0x0000000000000060       0x20 output/onboard_led.o
 .debug_aranges
                0x0000000000000080       0x20 output/gpio.o

.debug_line     0x0000000000000000      0xd88
 .debug_line    0x0000000000000000      0x163 output/startup_stm32f446re.o
 .debug_line    0x0000000000000163      0x684 output/system_stm32f446re.o
 .debug_line    0x00000000000007e7       0x55 output/main.o
 .debug_line    0x000000000000083c       0xa8 output/onboard_led.o
 .debug_line    0x00000000000008e4      0x4a4 output/gpio.o

.debug_str      0x0000000000000000      0xcdc
 .debug_str     0x0000000000000000      0x2fb output/startup_stm32f446re.o
                                        0x358 (size before relaxing)
 .debug_str     0x00000000000002fb      0x28c output/system_stm32f446re.o
                                        0x519 (size before relaxing)
 .debug_str     0x0000000000000587       0x10 output/main.o
                                         0xf9 (size before relaxing)
 .debug_str     0x0000000000000597      0x3b1 output/onboard_led.o
                                        0x526 (size before relaxing)
 .debug_str     0x0000000000000948      0x394 output/gpio.o
                                        0x895 (size before relaxing)

.comment        0x0000000000000000       0x79
 .comment       0x0000000000000000       0x79 output/startup_stm32f446re.o
                                         0x7a (size before relaxing)
 .comment       0x0000000000000079       0x7a output/system_stm32f446re.o
 .comment       0x0000000000000079       0x7a output/main.o
 .comment       0x0000000000000079       0x7a output/onboard_led.o
 .comment       0x0000000000000079       0x7a output/gpio.o

.ARM.attributes
                0x0000000000000000       0x34
 .ARM.attributes
                0x0000000000000000       0x34 output/startup_stm32f446re.o
 .ARM.attributes
                0x0000000000000034       0x34 output/system_stm32f446re.o
 .ARM.attributes
                0x0000000000000068       0x34 output/main.o
 .ARM.attributes
                0x000000000000009c       0x34 output/onboard_led.o
 .ARM.attributes
                0x00000000000000d0       0x34 output/gpio.o

.debug_frame    0x0000000000000000      0x530
 .debug_frame   0x0000000000000000       0x40 output/startup_stm32f446re.o
 .debug_frame   0x0000000000000040      0x224 output/system_stm32f446re.o
 .debug_frame   0x0000000000000264       0x30 output/main.o
 .debug_frame   0x0000000000000294       0x88 output/onboard_led.o
 .debug_frame   0x000000000000031c      0x214 output/gpio.o
